; Function Attrs: nofree norecurse nosync nounwind memory(read, inaccessiblemem: none) uwtable
define range(i32 -1, -2147483648) i32 @Gia_ManLutSizeMax(ptr noundef readonly captures(none) %0) local_unnamed_addr #3 {
  %2 = getelementptr i8, ptr %0, i64 24
  %.val = load i32, ptr %2, align 8, !tbaa !27
  %3 = icmp sgt i32 %.val, 1
  br i1 %3, label %.lr.ph, label %._crit_edge

.lr.ph:                                           ; preds = %1
  %4 = getelementptr i8, ptr %0, i64 264
  %.val9 = load ptr, ptr %4, align 8, !tbaa !46
  %5 = getelementptr i8, ptr %.val9, i64 8
  %.val9.val = load ptr, ptr %5, align 8, !tbaa !47
  %wide.trip.count = zext nneg i32 %.val to i64
  br label %6

6:                                                ; preds = %.lr.ph, %14
  %indvars.iv = phi i64 [ 1, %.lr.ph ], [ %indvars.iv.next, %14 ]
  %.013 = phi i32 [ -1, %.lr.ph ], [ %.1, %14 ]
  %7 = getelementptr inbounds nuw i32, ptr %.val9.val, i64 %indvars.iv
  %8 = load i32, ptr %7, align 4, !tbaa !48
  %.not11 = icmp eq i32 %8, 0
  br i1 %.not11, label %14, label %9

9:                                                ; preds = %6
  %10 = sext i32 %8 to i64
  %11 = getelementptr inbounds i32, ptr %.val9.val, i64 %10
  %12 = load i32, ptr %11, align 4, !tbaa !48
  %13 = tail call noundef i32 @llvm.smax.i32(i32 %.013, i32 %12)
  br label %14

14:                                               ; preds = %9, %6
  %.1 = phi i32 [ %13, %9 ], [ %.013, %6 ]
  %indvars.iv.next = add nuw nsw i64 %indvars.iv, 1
  %exitcond.not = icmp eq i64 %indvars.iv.next, %wide.trip.count
  br i1 %exitcond.not, label %._crit_edge, label %6, !llvm.loop !51

._crit_edge:                                      ; preds = %14, %1
  %.0.lcssa = phi i32 [ -1, %1 ], [ %.1, %14 ]
  ret i32 %.0.lcssa
}